target datalayout = "e-m:e-p270:32:32-p271:32:32-p272:64:64-i64:64-i128:128-f80:128-n8:16:32:64-S128"
target triple = "x86_64-pc-linux-gnu"

%struct.ZSTD_customMem = type { ptr, ptr, ptr }
%struct.ZSTD_DCtx_s = type { ptr, ptr, ptr, ptr, %struct.ZSTD_entropyDTables_t, [640 x i32], ptr, ptr, ptr, ptr, i64, %struct.ZSTD_FrameHeader, i64, i64, i32, i32, i32, i32, %struct.XXH64_state_s, i64, i32, i32, i32, ptr, %struct.ZSTD_customMem, i64, i64, i64, i32, i32, ptr, ptr, i32, i32, i32, ptr, i32, i32, i32, i32, ptr, i64, i64, i64, ptr, i64, i64, i64, i64, ptr, i32, i32, i32, i32, i32, %struct.ZSTD_outBuffer_s, ptr, ptr, i32, [65568 x i8], [18 x i8], i64, i64 }
%struct.ZSTD_entropyDTables_t = type { [513 x %struct.ZSTD_seqSymbol], [257 x %struct.ZSTD_seqSymbol], [513 x %struct.ZSTD_seqSymbol], [4097 x i32], [3 x i32], [157 x i32] }
%struct.ZSTD_seqSymbol = type { i16, i8, i8, i32 }
%struct.ZSTD_FrameHeader = type { i64, i64, i32, i32, i32, i32, i32, i32, i32 }
%struct.XXH64_state_s = type { i64, [4 x i64], [4 x i64], i32, i32, i64 }
%struct.ZSTD_outBuffer_s = type { ptr, i64, i64 }
%struct.ZSTD_cpuid_t = type { i32, i32, i32, i32 }

; Function Attrs: inlinehint nounwind uwtable
define internal i32 @ZSTD_cpuid_bmi2(i64 %0, i64 %1) #4 {
  %3 = alloca %struct.ZSTD_cpuid_t, align 4
  %4 = getelementptr inbounds nuw { i64, i64 }, ptr %3, i32 0, i32 0
  store i64 %0, ptr %4, align 4
  %5 = getelementptr inbounds nuw { i64, i64 }, ptr %3, i32 0, i32 1
  store i64 %1, ptr %5, align 4
  %6 = getelementptr inbounds nuw %struct.ZSTD_cpuid_t, ptr %3, i32 0, i32 2
  %7 = load i32, ptr %6, align 4, !tbaa !165
  %8 = and i32 %7, 256
  %9 = icmp ne i32 %8, 0
  %10 = zext i1 %9 to i32
  ret i32 %10
}

; Function Attrs: inlinehint nounwind uwtable
define internal i32 @ZSTD_cpuid_bmi1(i64 %0, i64 %1) #4 {
  %3 = alloca %struct.ZSTD_cpuid_t, align 4
  %4 = getelementptr inbounds nuw { i64, i64 }, ptr %3, i32 0, i32 0
  store i64 %0, ptr %4, align 4
  %5 = getelementptr inbounds nuw { i64, i64 }, ptr %3, i32 0, i32 1
  store i64 %1, ptr %5, align 4
  %6 = getelementptr inbounds nuw %struct.ZSTD_cpuid_t, ptr %3, i32 0, i32 2
  %7 = load i32, ptr %6, align 4, !tbaa !165
  %8 = and i32 %7, 8
  %9 = icmp ne i32 %8, 0
  %10 = zext i1 %9 to i32
  ret i32 %10
}

; Function Attrs: inlinehint nounwind uwtable
define internal { i64, i64 } @ZSTD_cpuid() #4 {
  %1 = alloca %struct.ZSTD_cpuid_t, align 4
  %2 = alloca i32, align 4
  %3 = alloca i32, align 4
  %4 = alloca i32, align 4
  %5 = alloca i32, align 4
  %6 = alloca i32, align 4
  %7 = alloca i32, align 4
  %8 = alloca i32, align 4
  call void @llvm.lifetime.start.p0(i64 4, ptr %2) #11
  store i32 0, ptr %2, align 4, !tbaa !43
  call void @llvm.lifetime.start.p0(i64 4, ptr %3) #11
  store i32 0, ptr %3, align 4, !tbaa !43
  call void @llvm.lifetime.start.p0(i64 4, ptr %4) #11
  store i32 0, ptr %4, align 4, !tbaa !43
  call void @llvm.lifetime.start.p0(i64 4, ptr %5) #11
  store i32 0, ptr %5, align 4, !tbaa !43
  call void @llvm.lifetime.start.p0(i64 4, ptr %6) #11
  %9 = call i32 asm "cpuid", "={ax},{ax},~{ebx},~{ecx},~{edx},~{dirflag},~{fpsr},~{flags}"(i32 0) #14, !srcloc !159
  store i32 %9, ptr %6, align 4, !tbaa !43
  %10 = load i32, ptr %6, align 4, !tbaa !43
  %11 = icmp uge i32 %10, 1
  br i1 %11, label %12, label %17

12:                                               ; preds = %0
  call void @llvm.lifetime.start.p0(i64 4, ptr %7) #11
  %13 = call { i32, i32, i32 } asm "cpuid", "={ax},={cx},={dx},{ax},~{ebx},~{dirflag},~{fpsr},~{flags}"(i32 1) #14, !srcloc !160
  %14 = extractvalue { i32, i32, i32 } %13, 0
  %15 = extractvalue { i32, i32, i32 } %13, 1
  %16 = extractvalue { i32, i32, i32 } %13, 2
  store i32 %14, ptr %7, align 4, !tbaa !43
  store i32 %15, ptr %2, align 4, !tbaa !43
  store i32 %16, ptr %3, align 4, !tbaa !43
  call void @llvm.lifetime.end.p0(i64 4, ptr %7) #11
  br label %17

17:                                               ; preds = %12, %0
  %18 = load i32, ptr %6, align 4, !tbaa !43
  %19 = icmp uge i32 %18, 7
  br i1 %19, label %20, label %25

20:                                               ; preds = %17
  call void @llvm.lifetime.start.p0(i64 4, ptr %8) #11
  %21 = call { i32, i32, i32 } asm "cpuid", "={ax},={bx},={cx},{ax},{cx},~{edx},~{dirflag},~{fpsr},~{flags}"(i32 7, i32 0) #14, !srcloc !161
  %22 = extractvalue { i32, i32, i32 } %21, 0
  %23 = extractvalue { i32, i32, i32 } %21, 1
  %24 = extractvalue { i32, i32, i32 } %21, 2
  store i32 %22, ptr %8, align 4, !tbaa !43
  store i32 %23, ptr %4, align 4, !tbaa !43
  store i32 %24, ptr %5, align 4, !tbaa !43
  call void @llvm.lifetime.end.p0(i64 4, ptr %8) #11
  br label %25

25:                                               ; preds = %20, %17
  %26 = load i32, ptr %2, align 4, !tbaa !43
  %27 = getelementptr inbounds nuw %struct.ZSTD_cpuid_t, ptr %1, i32 0, i32 0
  store i32 %26, ptr %27, align 4, !tbaa !162
  %28 = load i32, ptr %3, align 4, !tbaa !43
  %29 = getelementptr inbounds nuw %struct.ZSTD_cpuid_t, ptr %1, i32 0, i32 1
  store i32 %28, ptr %29, align 4, !tbaa !164
  %30 = load i32, ptr %4, align 4, !tbaa !43
  %31 = getelementptr inbounds nuw %struct.ZSTD_cpuid_t, ptr %1, i32 0, i32 2
  store i32 %30, ptr %31, align 4, !tbaa !165
  %32 = load i32, ptr %5, align 4, !tbaa !43
  %33 = getelementptr inbounds nuw %struct.ZSTD_cpuid_t, ptr %1, i32 0, i32 3
  store i32 %32, ptr %33, align 4, !tbaa !166
  call void @llvm.lifetime.end.p0(i64 4, ptr %6) #11
  call void @llvm.lifetime.end.p0(i64 4, ptr %5) #11
  call void @llvm.lifetime.end.p0(i64 4, ptr %4) #11
  call void @llvm.lifetime.end.p0(i64 4, ptr %3) #11
  call void @llvm.lifetime.end.p0(i64 4, ptr %2) #11
  %34 = load { i64, i64 }, ptr %1, align 4
  ret { i64, i64 } %34
}

; Function Attrs: nounwind uwtable
define internal void @ZSTD_DCtx_resetParameters(ptr noundef %0) #0 {
  %2 = alloca ptr, align 8
  store ptr %0, ptr %2, align 8, !tbaa !3
  %3 = load ptr, ptr %2, align 8, !tbaa !3
  %4 = getelementptr inbounds nuw %struct.ZSTD_DCtx_s, ptr %3, i32 0, i32 20
  store i32 0, ptr %4, align 8, !tbaa !77
  %5 = load ptr, ptr %2, align 8, !tbaa !3
  %6 = getelementptr inbounds nuw %struct.ZSTD_DCtx_s, ptr %5, i32 0, i32 43
  store i64 134217729, ptr %6, align 8, !tbaa !122
  %7 = load ptr, ptr %2, align 8, !tbaa !3
  %8 = getelementptr inbounds nuw %struct.ZSTD_DCtx_s, ptr %7, i32 0, i32 54
  store i32 0, ptr %8, align 8, !tbaa !124
  %9 = load ptr, ptr %2, align 8, !tbaa !3
  %10 = getelementptr inbounds nuw %struct.ZSTD_DCtx_s, ptr %9, i32 0, i32 21
  store i32 0, ptr %10, align 4, !tbaa !95
  %11 = load ptr, ptr %2, align 8, !tbaa !3
  %12 = getelementptr inbounds nuw %struct.ZSTD_DCtx_s, ptr %11, i32 0, i32 36
  store i32 0, ptr %12, align 8, !tbaa !92
  %13 = load ptr, ptr %2, align 8, !tbaa !3
  %14 = getelementptr inbounds nuw %struct.ZSTD_DCtx_s, ptr %13, i32 0, i32 37
  store i32 0, ptr %14, align 4, !tbaa !125
  %15 = load ptr, ptr %2, align 8, !tbaa !3
  %16 = getelementptr inbounds nuw %struct.ZSTD_DCtx_s, ptr %15, i32 0, i32 38
  store i32 0, ptr %16, align 8, !tbaa !126
  ret void
}

; Function Attrs: inlinehint nounwind uwtable
define internal i32 @ZSTD_cpuSupportsBmi2() #4 {
  %1 = alloca %struct.ZSTD_cpuid_t, align 4
  call void @llvm.lifetime.start.p0(i64 16, ptr %1) #11
  %2 = call { i64, i64 } @ZSTD_cpuid()
  %3 = getelementptr inbounds nuw { i64, i64 }, ptr %1, i32 0, i32 0
  %4 = extractvalue { i64, i64 } %2, 0
  store i64 %4, ptr %3, align 4
  %5 = getelementptr inbounds nuw { i64, i64 }, ptr %1, i32 0, i32 1
  %6 = extractvalue { i64, i64 } %2, 1
  store i64 %6, ptr %5, align 4
  %7 = getelementptr inbounds nuw { i64, i64 }, ptr %1, i32 0, i32 0
  %8 = load i64, ptr %7, align 4
  %9 = getelementptr inbounds nuw { i64, i64 }, ptr %1, i32 0, i32 1
  %10 = load i64, ptr %9, align 4
  %11 = call i32 @ZSTD_cpuid_bmi1(i64 %8, i64 %10)
  %12 = icmp ne i32 %11, 0
  br i1 %12, label %13, label %20

13:                                               ; preds = %0
  %14 = getelementptr inbounds nuw { i64, i64 }, ptr %1, i32 0, i32 0
  %15 = load i64, ptr %14, align 4
  %16 = getelementptr inbounds nuw { i64, i64 }, ptr %1, i32 0, i32 1
  %17 = load i64, ptr %16, align 4
  %18 = call i32 @ZSTD_cpuid_bmi2(i64 %15, i64 %17)
  %19 = icmp ne i32 %18, 0
  br label %20

20:                                               ; preds = %13, %0
  %21 = phi i1 [ false, %0 ], [ %19, %13 ]
  %22 = zext i1 %21 to i32
  call void @llvm.lifetime.end.p0(i64 16, ptr %1) #11
  ret i32 %22
}

; Function Attrs: nounwind uwtable
define internal void @ZSTD_initDCtx_internal(ptr noundef %0) #0 {
  %2 = alloca ptr, align 8
  store ptr %0, ptr %2, align 8, !tbaa !3
  %3 = load ptr, ptr %2, align 8, !tbaa !3
  %4 = getelementptr inbounds nuw %struct.ZSTD_DCtx_s, ptr %3, i32 0, i32 27
  store i64 0, ptr %4, align 8, !tbaa !25
  %5 = load ptr, ptr %2, align 8, !tbaa !3
  %6 = getelementptr inbounds nuw %struct.ZSTD_DCtx_s, ptr %5, i32 0, i32 31
  store ptr null, ptr %6, align 8, !tbaa !27
  %7 = load ptr, ptr %2, align 8, !tbaa !3
  %8 = getelementptr inbounds nuw %struct.ZSTD_DCtx_s, ptr %7, i32 0, i32 30
  store ptr null, ptr %8, align 8, !tbaa !8
  %9 = load ptr, ptr %2, align 8, !tbaa !3
  %10 = getelementptr inbounds nuw %struct.ZSTD_DCtx_s, ptr %9, i32 0, i32 9
  store ptr null, ptr %10, align 8, !tbaa !28
  %11 = load ptr, ptr %2, align 8, !tbaa !3
  %12 = getelementptr inbounds nuw %struct.ZSTD_DCtx_s, ptr %11, i32 0, i32 33
  store i32 0, ptr %12, align 4, !tbaa !29
  %13 = load ptr, ptr %2, align 8, !tbaa !3
  %14 = getelementptr inbounds nuw %struct.ZSTD_DCtx_s, ptr %13, i32 0, i32 34
  store i32 0, ptr %14, align 8, !tbaa !30
  %15 = load ptr, ptr %2, align 8, !tbaa !3
  %16 = getelementptr inbounds nuw %struct.ZSTD_DCtx_s, ptr %15, i32 0, i32 40
  store ptr null, ptr %16, align 8, !tbaa !26
  %17 = load ptr, ptr %2, align 8, !tbaa !3
  %18 = getelementptr inbounds nuw %struct.ZSTD_DCtx_s, ptr %17, i32 0, i32 41
  store i64 0, ptr %18, align 8, !tbaa !21
  %19 = load ptr, ptr %2, align 8, !tbaa !3
  %20 = getelementptr inbounds nuw %struct.ZSTD_DCtx_s, ptr %19, i32 0, i32 45
  store i64 0, ptr %20, align 8, !tbaa !22
  %21 = load ptr, ptr %2, align 8, !tbaa !3
  %22 = getelementptr inbounds nuw %struct.ZSTD_DCtx_s, ptr %21, i32 0, i32 39
  store i32 0, ptr %22, align 4, !tbaa !31
  %23 = load ptr, ptr %2, align 8, !tbaa !3
  %24 = getelementptr inbounds nuw %struct.ZSTD_DCtx_s, ptr %23, i32 0, i32 49
  store ptr null, ptr %24, align 8, !tbaa !32
  %25 = load ptr, ptr %2, align 8, !tbaa !3
  %26 = getelementptr inbounds nuw %struct.ZSTD_DCtx_s, ptr %25, i32 0, i32 50
  store i32 0, ptr %26, align 8, !tbaa !33
  %27 = load ptr, ptr %2, align 8, !tbaa !3
  %28 = getelementptr inbounds nuw %struct.ZSTD_DCtx_s, ptr %27, i32 0, i32 53
  store i32 0, ptr %28, align 4, !tbaa !34
  %29 = load ptr, ptr %2, align 8, !tbaa !3
  %30 = getelementptr inbounds nuw %struct.ZSTD_DCtx_s, ptr %29, i32 0, i32 61
  store i64 0, ptr %30, align 8, !tbaa !35
  %31 = load ptr, ptr %2, align 8, !tbaa !3
  %32 = getelementptr inbounds nuw %struct.ZSTD_DCtx_s, ptr %31, i32 0, i32 28
  store i32 1, ptr %32, align 8, !tbaa !36
  %33 = call i32 @ZSTD_cpuSupportsBmi2()
  %34 = load ptr, ptr %2, align 8, !tbaa !3
  %35 = getelementptr inbounds nuw %struct.ZSTD_DCtx_s, ptr %34, i32 0, i32 29
  store i32 %33, ptr %35, align 4, !tbaa !37
  %36 = load ptr, ptr %2, align 8, !tbaa !3
  %37 = getelementptr inbounds nuw %struct.ZSTD_DCtx_s, ptr %36, i32 0, i32 35
  store ptr null, ptr %37, align 8, !tbaa !38
  %38 = load ptr, ptr %2, align 8, !tbaa !3
  call void @ZSTD_DCtx_resetParameters(ptr noundef %38)
  ret void
}

; Function Attrs: nounwind uwtable
define ptr @ZSTD_initStaticDCtx(ptr noundef %0, i64 noundef %1) #0 {
  %3 = alloca ptr, align 8
  %4 = alloca ptr, align 8
  %5 = alloca i64, align 8
  %6 = alloca ptr, align 8
  %7 = alloca i32, align 4
  store ptr %0, ptr %4, align 8, !tbaa !23
  store i64 %1, ptr %5, align 8, !tbaa !24
  call void @llvm.lifetime.start.p0(i64 8, ptr %6) #11
  %8 = load ptr, ptr %4, align 8, !tbaa !23
  store ptr %8, ptr %6, align 8, !tbaa !3
  %9 = load ptr, ptr %4, align 8, !tbaa !23
  %10 = ptrtoint ptr %9 to i64
  %11 = and i64 %10, 7
  %12 = icmp ne i64 %11, 0
  br i1 %12, label %13, label %14

13:                                               ; preds = %2
  store ptr null, ptr %3, align 8
  store i32 1, ptr %7, align 4
  br label %28

14:                                               ; preds = %2
  %15 = load i64, ptr %5, align 8, !tbaa !24
  %16 = icmp ult i64 %15, 95992
  br i1 %16, label %17, label %18

17:                                               ; preds = %14
  store ptr null, ptr %3, align 8
  store i32 1, ptr %7, align 4
  br label %28

18:                                               ; preds = %14
  %19 = load ptr, ptr %6, align 8, !tbaa !3
  call void @ZSTD_initDCtx_internal(ptr noundef %19)
  %20 = load i64, ptr %5, align 8, !tbaa !24
  %21 = load ptr, ptr %6, align 8, !tbaa !3
  %22 = getelementptr inbounds nuw %struct.ZSTD_DCtx_s, ptr %21, i32 0, i32 27
  store i64 %20, ptr %22, align 8, !tbaa !25
  %23 = load ptr, ptr %6, align 8, !tbaa !3
  %24 = getelementptr inbounds %struct.ZSTD_DCtx_s, ptr %23, i64 1
  %25 = load ptr, ptr %6, align 8, !tbaa !3
  %26 = getelementptr inbounds nuw %struct.ZSTD_DCtx_s, ptr %25, i32 0, i32 40
  store ptr %24, ptr %26, align 8, !tbaa !26
  %27 = load ptr, ptr %6, align 8, !tbaa !3
  store ptr %27, ptr %3, align 8
  store i32 1, ptr %7, align 4
  br label %28

28:                                               ; preds = %18, %17, %13
  call void @llvm.lifetime.end.p0(i64 8, ptr %6) #11
  %29 = load ptr, ptr %3, align 8
  ret ptr %29
}

; Function Attrs: nounwind uwtable
define ptr @ZSTD_initStaticDStream(ptr noundef %0, i64 noundef %1) #0 {
  %3 = alloca ptr, align 8
  %4 = alloca i64, align 8
  store ptr %0, ptr %3, align 8, !tbaa !23
  store i64 %1, ptr %4, align 8, !tbaa !24
  %5 = load ptr, ptr %3, align 8, !tbaa !23
  %6 = load i64, ptr %4, align 8, !tbaa !24
  %7 = call ptr @ZSTD_initStaticDCtx(ptr noundef %5, i64 noundef %6)
  ret ptr %7
}